-----BEGIN ENCRYPTED PRIVATE KEY-----
MIIFDjBABgkqhkiG9w0BBQ0wMzAbBgkqhkiG9w0BBQwwDgQIKTI1xyAzeV8CAggA
MBQGCCqGSIb3DQMHBAiqhhpTXc/ASwSCBMhVnI9j52HE2XAn827HezI6zKdeqNHf
LO3AwKbfSYHDF/jO/WiWjxUPxmZ+0XI2YOamolPiWSzOVLFZMhCZ5FsZBg4RSvR9
fsdwYSW8QyVbDIc0ZF0HxbO994foEKWd80bSBProjFMvK3esA1k/EkBDAecSjv08
0UgSlgDen71wlwk/cO53yoUCnLMrasFzKYlRB5vUZOziimLBgQjvW3piX7FLbg6c
xzmzJ38KOrpBEms1IdexuwU4GylDeqNp1Za0VVpOAmIFoFuewTghqzbaSMEbOimU
j7VqCwG4QotR3YSXJdW/D4i2nNPgQZUYWL+0Pryddtg/d1+yi9u0BWh1xhpD8syZ
SCuHeb61uEIcpa6zhC+g+dpO8a+5xxuDsHYA90zBObxFWxHo+QUewaO22D3S67Ih
fohyyV3Bus2Lx5Laa/9kfS82Zj+J6L/YymGo6hKhiVYn8EGSjxv0gTxRJldmSOlP
eTR0ehzNMILc/t6obFUnu5bVupp9l0cyF972b9DB8+ZOYrPnD5/BF9RS/xR/JSXT
OteIZcSPqJj4gyQ4fa/DfVTZOAvSCzxa/Mnrx99gu3uRagNXwWNR4ibykeV+/smD
bDEaWMEUu14gbo++dXL+av21kdz8l9ckJjn9cZ+ti9cj03dZ2WjmBNnWDpoQHbyD
QvpCrqZphYRaETvDDFTG7mKvLqeeFLzOHAG39md7VTDK43SVJkWuJydMRUewE9Vv
o7+6B7CzoOLyQALYGQj36WwYjgNzTjhE7fQcqgGkl3Kjjx+cwckgBCcFOwWzfa0M
6bLbBLdCYQVaZQMyPdKXXsdlSsCLP1h698kVVMbdMImYG8vdfnLdgcIPqyjkQQoS
p3baMRApipDanar/4wwgpT3lB3iRIuQQYoYm4diHAy16kpf51Uikp+q55MfJ/FwL
du+wF7pFTa1FLbv8jf+MeHVPWrLN1SkHOdPs+NBQIs9xxkd7e74W69Gz8n9tKtRY
0COzkWkzvfAS0926q92qhBJ6ZWx7x4AVcXbb3JDSowcpLRrtnwuYXz8GNysNSv6s
emBN1LjSUFYP7zc1jkSI+DW8cDnrN6KLit3NDOFmHiNrJYJMPze3ny9f4mXvyYlU
ChWNhqY65YjNuWZZ9A9Cx+gfqy7NqYw+VGVGE7W9efvIuxBKjq7z4CtqghFYZCbH
qOqfmFdqzpX3h5fK3677XhdFNPSvcK37DVheiAv88CtdC6kKE9s0H/aF3j2aOlJ1
NM3wQeNFUS7pt84+rs/0U/872E0FqVN9cqOthArgR7ey3X9tQ5Z2a03FBFVW4E0I
oixt0ZurLfjm882ibXu5MXsSgxhn7Hzy2KxhF1I732K35zpwLqyhhgFCheqNp97p
WOsiZS0JNWCX2A5bTVgp26iTVARTW4XiUGwcZdHAxhe7cNg3BfcSP/DmA+iIZaEx
mCkXO2q1gP/pAexwBN4l7GHdDdkw4RNgjAfCG6YO1S7GcKppoY9rhGDni0ViBULd
oBs8+Z4ptRZK3GM20G5A7ZPBbRh1T3EXFqTz1pwnJmPgDanuswBiSRLyJTv5XQgd
Jc5GAYDEulcRlzJxkzcS46Yy1D6bHS/+Z1PhRdm1pWuVckSrDlbbUqhI6KvvmpJg
L3s=
-----END ENCRYPTED PRIVATE KEY-----
Certificate:
    Data:
        Version: 3 (0x2)
        Serial Number: 1 (0x1)
    Signature Algorithm: sha1WithRSAEncryption
        Issuer: DC=org, DC=simple, O=Simple Inc, OU=Simple Signing CA, CN=Simple Signing CA
        Validity
            Not Before: Dec  9 08:52:15 2017 GMT
            Not After : Dec  9 08:52:15 2019 GMT
        Subject: DC=org, DC=simple, O=Simple Inc, CN=Fred Flintstone
        Subject Public Key Info:
            Public Key Algorithm: rsaEncryption
                Public-Key: (2048 bit)
                Modulus:
                    00:e2:7e:1a:ff:95:d2:50:8a:48:9b:8f:49:49:f4:
                    a2:41:a4:e4:36:98:98:b5:ed:31:0b:fb:1b:5d:5c:
                    af:0a:2a:50:f6:67:44:10:51:82:be:e2:c3:39:86:
                    ff:d5:47:70:25:3e:22:5a:5f:cd:87:17:c4:41:5e:
                    c1:61:de:3a:49:c2:f9:41:00:bb:64:96:3a:00:66:
                    da:0b:b1:5e:e6:df:e7:2f:20:18:ab:f0:66:a4:31:
                    77:20:8c:54:91:8b:7a:5d:2a:1e:8a:0d:a1:b1:3c:
                    31:59:e0:7d:b6:d3:aa:b9:a4:bc:a9:63:c3:ab:39:
                    8d:fd:39:93:90:98:bf:69:7c:9d:c4:16:47:9c:fd:
                    22:a5:1c:e0:35:d2:8a:39:49:84:c2:20:f6:38:f5:
                    d7:e8:36:f8:b7:46:a2:9b:ef:fb:60:9f:59:5a:bb:
                    ed:72:7a:f3:3e:d9:22:51:04:d7:82:af:4b:73:1d:
                    48:74:a0:fe:f8:31:ae:bc:44:d8:2e:ab:ca:f9:0b:
                    04:11:ca:0a:44:8c:de:87:e7:ea:3e:59:27:e4:ac:
                    42:70:68:87:dc:2e:11:9b:2a:f7:ed:a0:ec:34:d6:
                    66:35:b3:e5:ad:39:c9:fc:f7:d7:59:e5:19:64:5a:
                    c4:15:92:63:64:82:f4:a7:46:ff:45:e6:bc:ac:55:
                    12:bf
                Exponent: 65537 (0x10001)
        X509v3 extensions:
            X509v3 Key Usage: critical
                Digital Signature, Key Encipherment
            X509v3 Basic Constraints: 
                CA:FALSE
            X509v3 Extended Key Usage: 
                E-mail Protection, TLS Web Client Authentication
            X509v3 Subject Key Identifier: 
                DE:2B:B1:2D:D1:7D:3E:45:AD:A7:A1:86:EF:F8:7A:7F:5C:0E:27:96
            X509v3 Authority Key Identifier: 
                keyid:F8:C3:45:7E:CF:39:A3:E1:BD:54:94:DF:9B:92:59:17:BA:AD:DD:05

            X509v3 Subject Alternative Name: 
                email:fred@simple.org
    Signature Algorithm: sha1WithRSAEncryption
         2a:e7:9e:31:e8:a0:fb:0f:72:15:47:c3:da:2d:b0:32:bf:91:
         8e:a2:df:bd:b5:2c:c3:53:ba:79:31:f8:b4:7a:05:98:42:b1:
         12:ff:98:9c:67:82:cf:11:03:c7:79:f7:bf:d6:64:d8:63:48:
         88:5b:a9:ef:a4:0e:aa:fb:a4:be:4e:8d:c2:3d:0b:96:75:69:
         c9:ee:fa:6b:dd:e4:65:6d:7f:a0:4f:65:3e:67:78:e5:42:db:
         ad:92:7e:bc:17:8e:dd:44:b3:cc:1c:d7:02:b5:4e:46:bd:5a:
         3f:4a:1b:b8:ef:bd:4b:f4:ac:04:d3:9e:33:73:07:93:9c:8d:
         46:9c:d6:1b:b6:c5:60:79:0e:ac:7c:c1:3e:39:60:ad:ea:22:
         61:c8:ae:5a:99:cd:11:94:39:32:6f:4c:91:39:97:a1:da:3c:
         86:d3:bc:e3:ea:2a:fd:18:2d:a6:9e:13:dc:f4:b4:45:d9:4b:
         af:25:f9:66:a6:fc:d9:54:80:ac:48:46:4f:a0:d9:97:ca:cc:
         91:c6:9d:fe:7c:74:9e:0b:b7:b9:da:5c:40:8c:bd:70:68:69:
         b8:3b:76:d0:97:44:f8:30:cb:3f:4e:b2:cf:e1:10:57:31:3b:
         ec:50:82:38:22:ae:c4:cb:ea:81:54:17:95:8b:f2:dd:b6:30:
         f2:83:30:c5
-----BEGIN CERTIFICATE-----
MIID6zCCAtOgAwIBAgIBATANBgkqhkiG9w0BAQUFADB6MRMwEQYKCZImiZPyLGQB
GRYDb3JnMRYwFAYKCZImiZPyLGQBGRYGc2ltcGxlMRMwEQYDVQQKDApTaW1wbGUg
SW5jMRowGAYDVQQLDBFTaW1wbGUgU2lnbmluZyBDQTEaMBgGA1UEAwwRU2ltcGxl
IFNpZ25pbmcgQ0EwHhcNMTcxMjA5MDg1MjE1WhcNMTkxMjA5MDg1MjE1WjBcMRMw
EQYKCZImiZPyLGQBGRYDb3JnMRYwFAYKCZImiZPyLGQBGRYGc2ltcGxlMRMwEQYD
VQQKDApTaW1wbGUgSW5jMRgwFgYDVQQDDA9GcmVkIEZsaW50c3RvbmUwggEiMA0G
CSqGSIb3DQEBAQUAA4IBDwAwggEKAoIBAQDifhr/ldJQikibj0lJ9KJBpOQ2mJi1
7TEL+xtdXK8KKlD2Z0QQUYK+4sM5hv/VR3AlPiJaX82HF8RBXsFh3jpJwvlBALtk
ljoAZtoLsV7m3+cvIBir8GakMXcgjFSRi3pdKh6KDaGxPDFZ4H2206q5pLypY8Or
OY39OZOQmL9pfJ3EFkec/SKlHOA10oo5SYTCIPY49dfoNvi3RqKb7/tgn1lau+1y
evM+2SJRBNeCr0tzHUh0oP74Ma68RNguq8r5CwQRygpEjN6H5+o+WSfkrEJwaIfc
LhGbKvftoOw01mY1s+WtOcn899dZ5RlkWsQVkmNkgvSnRv9F5rysVRK/AgMBAAGj
gZkwgZYwDgYDVR0PAQH/BAQDAgWgMAkGA1UdEwQCMAAwHQYDVR0lBBYwFAYIKwYB
BQUHAwQGCCsGAQUFBwMCMB0GA1UdDgQWBBTeK7Et0X0+Ra2noYbv+Hp/XA4nljAf
BgNVHSMEGDAWgBT4w0V+zzmj4b1UlN+bklkXuq3dBTAaBgNVHREEEzARgQ9mcmVk
QHNpbXBsZS5vcmcwDQYJKoZIhvcNAQEFBQADggEBACrnnjHooPsPchVHw9otsDK/
kY6i3721LMNTunkx+LR6BZhCsRL/mJxngs8RA8d597/WZNhjSIhbqe+kDqr7pL5O
jcI9C5Z1acnu+mvd5GVtf6BPZT5neOVC262SfrwXjt1Es8wc1wK1Tka9Wj9KG7jv
vUv0rATTnjNzB5OcjUac1hu2xWB5Dqx8wT45YK3qImHIrlqZzRGUOTJvTJE5l6Ha
PIbTvOPqKv0YLaaeE9z0tEXZS68l+Wam/NlUgKxIRk+g2ZfKzJHGnf58dJ4Lt7na
XECMvXBoabg7dtCXRPgwyz9Oss/hEFcxO+xQgjgirsTL6oFUF5WL8t22MPKDMMU=
-----END CERTIFICATE-----
