Certificate:
    Data:
        Version: 3 (0x2)
        Serial Number: 2 (0x2)
    Signature Algorithm: sha1WithRSAEncryption
        Issuer: DC=org, DC=simple, O=Simple Inc, OU=Simple Root CA, CN=Simple Root CA
        Validity
            Not Before: Dec  9 08:42:14 2017 GMT
            Not After : Dec  9 08:42:14 2027 GMT
        Subject: DC=org, DC=simple, O=Simple Inc, OU=Simple Signing CA, CN=Simple Signing CA
        Subject Public Key Info:
            Public Key Algorithm: rsaEncryption
                Public-Key: (2048 bit)
                Modulus:
                    00:ac:6a:c7:9f:1e:6a:c8:53:23:fe:b6:44:d3:77:
                    9f:eb:da:7e:44:0b:26:13:86:cb:e5:e0:fc:12:6e:
                    ad:88:f0:5a:e5:89:41:84:d1:3b:a1:40:29:9a:44:
                    7b:3a:b9:bd:af:bb:56:01:32:05:fa:45:a2:d5:cb:
                    f3:a9:73:c6:6a:d0:9e:09:dd:e0:45:85:75:55:00:
                    e4:65:43:b2:45:1c:a5:7f:57:55:8c:5f:29:8b:03:
                    c2:88:89:c1:57:d8:7d:be:42:63:a8:f4:14:ca:53:
                    0b:44:a4:a6:5e:3f:db:db:da:68:95:c0:cc:2c:fb:
                    41:d4:65:bb:58:52:2e:10:cc:5a:c4:17:41:3a:87:
                    3d:7d:fd:a8:c5:d9:2c:75:c0:e1:e5:49:c1:62:63:
                    31:92:b4:0a:6c:11:44:77:45:46:67:83:a6:9b:77:
                    0d:fd:f8:24:f4:0d:75:72:40:6e:6e:3c:bc:5f:c8:
                    a2:cc:cc:73:dc:fa:df:ed:b6:ed:8b:06:9f:bd:59:
                    24:c3:ea:fd:c6:40:b6:fd:a1:e5:7c:c9:f9:af:cc:
                    d2:62:19:fe:78:df:81:b8:b5:f8:5b:40:ba:05:7e:
                    25:ed:08:09:47:1d:f3:58:cb:0e:75:71:57:fa:c9:
                    43:8b:7d:01:1b:3a:88:0b:f4:f5:a2:d5:00:1f:2e:
                    6c:5b
                Exponent: 65537 (0x10001)
        X509v3 extensions:
            X509v3 Key Usage: critical
                Certificate Sign, CRL Sign
            X509v3 Basic Constraints: critical
                CA:TRUE, pathlen:0
            X509v3 Subject Key Identifier: 
                F8:C3:45:7E:CF:39:A3:E1:BD:54:94:DF:9B:92:59:17:BA:AD:DD:05
            X509v3 Authority Key Identifier: 
                keyid:32:42:F2:6F:FA:72:A8:36:76:14:45:DC:4E:B3:12:4D:89:25:06:83

    Signature Algorithm: sha1WithRSAEncryption
         b2:a4:f3:22:84:56:93:2a:1f:ea:7e:54:83:f1:59:16:21:07:
         bb:68:f1:8c:9f:e0:c9:b3:56:81:79:be:9d:3a:26:1c:9d:ec:
         6e:2c:2a:55:b5:71:8c:46:ae:41:a1:15:60:c1:a8:8a:6a:f7:
         7e:50:8f:65:d0:3a:f3:ce:95:c6:1c:a8:d6:4e:2f:b0:c9:38:
         88:75:00:0a:51:fc:8c:35:1d:c7:ed:e4:21:74:2b:53:2f:12:
         51:52:64:a9:af:42:f8:83:b0:bc:8c:1c:4c:3a:fd:24:62:2c:
         7e:31:13:e8:4e:1d:97:3b:38:cf:c0:65:9c:79:b3:e3:00:55:
         43:c2:59:32:5c:c3:40:4b:f7:5a:70:69:51:78:4e:2f:b6:bd:
         cb:db:a2:29:8b:2f:e0:b8:8f:76:ae:dd:29:2e:1f:cc:21:67:
         26:7c:8a:35:0d:77:6c:1a:60:1d:6a:62:f6:a4:d7:c5:09:17:
         b7:29:52:d8:52:1e:58:bf:91:15:e6:1a:20:f0:1e:11:f1:2e:
         fa:00:7e:9b:ae:8b:25:73:02:5d:b3:02:e1:00:17:aa:f9:5e:
         6a:d3:22:aa:0e:93:37:bf:ec:4e:8c:25:70:4c:73:23:42:1c:
         95:f9:b5:14:47:74:c6:dc:6e:de:7e:6c:c6:1f:8f:49:32:86:
         88:ab:6a:24
-----BEGIN CERTIFICATE-----
MIIDzzCCAregAwIBAgIBAjANBgkqhkiG9w0BAQUFADB0MRMwEQYKCZImiZPyLGQB
GRYDb3JnMRYwFAYKCZImiZPyLGQBGRYGc2ltcGxlMRMwEQYDVQQKDApTaW1wbGUg
SW5jMRcwFQYDVQQLDA5TaW1wbGUgUm9vdCBDQTEXMBUGA1UEAwwOU2ltcGxlIFJv
b3QgQ0EwHhcNMTcxMjA5MDg0MjE0WhcNMjcxMjA5MDg0MjE0WjB6MRMwEQYKCZIm
iZPyLGQBGRYDb3JnMRYwFAYKCZImiZPyLGQBGRYGc2ltcGxlMRMwEQYDVQQKDApT
aW1wbGUgSW5jMRowGAYDVQQLDBFTaW1wbGUgU2lnbmluZyBDQTEaMBgGA1UEAwwR
U2ltcGxlIFNpZ25pbmcgQ0EwggEiMA0GCSqGSIb3DQEBAQUAA4IBDwAwggEKAoIB
AQCsasefHmrIUyP+tkTTd5/r2n5ECyYThsvl4PwSbq2I8FrliUGE0TuhQCmaRHs6
ub2vu1YBMgX6RaLVy/Opc8Zq0J4J3eBFhXVVAORlQ7JFHKV/V1WMXymLA8KIicFX
2H2+QmOo9BTKUwtEpKZeP9vb2miVwMws+0HUZbtYUi4QzFrEF0E6hz19/ajF2Sx1
wOHlScFiYzGStApsEUR3RUZng6abdw39+CT0DXVyQG5uPLxfyKLMzHPc+t/ttu2L
Bp+9WSTD6v3GQLb9oeV8yfmvzNJiGf5434G4tfhbQLoFfiXtCAlHHfNYyw51cVf6
yUOLfQEbOogL9PWi1QAfLmxbAgMBAAGjZjBkMA4GA1UdDwEB/wQEAwIBBjASBgNV
HRMBAf8ECDAGAQH/AgEAMB0GA1UdDgQWBBT4w0V+zzmj4b1UlN+bklkXuq3dBTAf
BgNVHSMEGDAWgBQyQvJv+nKoNnYURdxOsxJNiSUGgzANBgkqhkiG9w0BAQUFAAOC
AQEAsqTzIoRWkyof6n5Ug/FZFiEHu2jxjJ/gybNWgXm+nTomHJ3sbiwqVbVxjEau
QaEVYMGoimr3flCPZdA6886Vxhyo1k4vsMk4iHUAClH8jDUdx+3kIXQrUy8SUVJk
qa9C+IOwvIwcTDr9JGIsfjET6E4dlzs4z8BlnHmz4wBVQ8JZMlzDQEv3WnBpUXhO
L7a9y9uiKYsv4LiPdq7dKS4fzCFnJnyKNQ13bBpgHWpi9qTXxQkXtylS2FIeWL+R
FeYaIPAeEfEu+gB+m66LJXMCXbMC4QAXqvleatMiqg6TN7/sTowlcExzI0Iclfm1
FEd0xtxu3n5sxh+PSTKGiKtqJA==
-----END CERTIFICATE-----
Certificate:
    Data:
        Version: 3 (0x2)
        Serial Number: 1 (0x1)
    Signature Algorithm: sha1WithRSAEncryption
        Issuer: DC=org, DC=simple, O=Simple Inc, OU=Simple Root CA, CN=Simple Root CA
        Validity
            Not Before: Dec  9 08:30:14 2017 GMT
            Not After : Dec  9 08:30:14 2027 GMT
        Subject: DC=org, DC=simple, O=Simple Inc, OU=Simple Root CA, CN=Simple Root CA
        Subject Public Key Info:
            Public Key Algorithm: rsaEncryption
                Public-Key: (2048 bit)
                Modulus:
                    00:de:95:8c:2e:f0:cc:1f:0c:67:3c:34:24:46:73:
                    d3:ee:c0:90:2c:4e:6d:30:17:8a:3a:d8:77:48:8a:
                    91:56:b6:cc:5a:51:b7:f2:8f:a9:05:a0:4f:80:7a:
                    0e:ae:b5:e2:a7:99:98:be:66:79:4c:9d:44:05:85:
                    d1:59:25:18:b4:d3:0f:6c:8d:02:63:4d:fe:8d:76:
                    06:cd:99:b5:cd:6b:8d:55:d5:45:60:aa:6e:2b:b3:
                    e2:3c:fa:83:e0:3a:b9:18:89:4d:0a:07:80:a2:9e:
                    05:29:70:51:00:43:9e:dc:44:2b:26:97:1b:05:00:
                    26:5b:ed:54:bc:c7:dc:81:93:9a:97:a5:e4:c2:8f:
                    73:67:6a:db:62:a6:7a:1a:6a:87:c9:dd:0f:4f:eb:
                    82:b4:c4:a4:ea:1b:8c:ef:71:69:82:3a:0f:7e:88:
                    0e:2b:eb:5c:96:59:7c:b8:22:b9:72:cf:bb:84:3e:
                    b1:7e:ed:7c:26:42:95:02:da:d4:8e:85:d8:76:91:
                    43:50:ac:df:21:b3:bc:65:f4:31:22:77:67:ad:1d:
                    c8:18:68:a7:c2:95:69:c9:d1:22:0b:ac:ba:51:fe:
                    df:b2:a1:24:6c:24:f5:6d:81:dd:df:0a:d3:b7:ac:
                    07:c5:2c:56:c6:92:92:76:1c:a9:1d:67:15:e6:6a:
                    cb:f5
                Exponent: 65537 (0x10001)
        X509v3 extensions:
            X509v3 Key Usage: critical
                Certificate Sign, CRL Sign
            X509v3 Basic Constraints: critical
                CA:TRUE
            X509v3 Subject Key Identifier: 
                32:42:F2:6F:FA:72:A8:36:76:14:45:DC:4E:B3:12:4D:89:25:06:83
            X509v3 Authority Key Identifier: 
                keyid:32:42:F2:6F:FA:72:A8:36:76:14:45:DC:4E:B3:12:4D:89:25:06:83

    Signature Algorithm: sha1WithRSAEncryption
         36:ac:02:21:32:b2:30:00:54:0b:95:f8:2e:d6:57:9c:c3:7d:
         fc:4b:5c:2e:f3:da:3a:4e:37:13:78:9d:79:d1:62:31:f5:15:
         05:68:d9:0b:e0:7f:26:a3:a9:85:82:66:d4:65:96:17:6b:6a:
         3b:a0:c8:91:9c:ee:3f:93:d4:47:8f:c7:ce:31:e4:40:6e:e7:
         02:61:4d:3a:b4:50:3d:ca:e0:3b:6b:a6:3b:b6:ad:77:7b:e8:
         a6:3a:b4:c4:6e:05:07:9c:09:5e:03:a9:cb:d5:0f:93:d8:03:
         6b:6b:cd:74:85:c1:40:96:8b:ce:42:9a:de:83:2a:86:7b:ed:
         31:ec:d0:0d:d9:f5:f1:a5:69:c6:6d:ee:4c:dc:98:d0:43:87:
         22:2c:9c:9f:75:cb:70:0e:b0:6c:01:13:ce:a4:77:48:eb:73:
         a0:8e:26:a1:b8:2c:f8:c2:53:1a:81:51:33:61:c9:fe:67:d7:
         e6:d0:2b:58:9e:af:90:87:48:8b:ad:2e:9c:f2:05:6d:8d:98:
         cc:e4:67:96:ef:08:43:df:89:52:1f:06:31:eb:9f:1f:c8:a5:
         89:13:b6:e4:fb:de:93:e4:87:e1:09:b6:e4:37:08:73:84:fc:
         4b:a8:bd:1c:4a:84:f7:e6:dd:7c:e9:d9:00:39:79:14:b2:80:
         d9:52:a3:18
-----BEGIN CERTIFICATE-----
MIIDxjCCAq6gAwIBAgIBATANBgkqhkiG9w0BAQUFADB0MRMwEQYKCZImiZPyLGQB
GRYDb3JnMRYwFAYKCZImiZPyLGQBGRYGc2ltcGxlMRMwEQYDVQQKDApTaW1wbGUg
SW5jMRcwFQYDVQQLDA5TaW1wbGUgUm9vdCBDQTEXMBUGA1UEAwwOU2ltcGxlIFJv
b3QgQ0EwHhcNMTcxMjA5MDgzMDE0WhcNMjcxMjA5MDgzMDE0WjB0MRMwEQYKCZIm
iZPyLGQBGRYDb3JnMRYwFAYKCZImiZPyLGQBGRYGc2ltcGxlMRMwEQYDVQQKDApT
aW1wbGUgSW5jMRcwFQYDVQQLDA5TaW1wbGUgUm9vdCBDQTEXMBUGA1UEAwwOU2lt
cGxlIFJvb3QgQ0EwggEiMA0GCSqGSIb3DQEBAQUAA4IBDwAwggEKAoIBAQDelYwu
8MwfDGc8NCRGc9PuwJAsTm0wF4o62HdIipFWtsxaUbfyj6kFoE+Aeg6uteKnmZi+
ZnlMnUQFhdFZJRi00w9sjQJjTf6NdgbNmbXNa41V1UVgqm4rs+I8+oPgOrkYiU0K
B4CingUpcFEAQ57cRCsmlxsFACZb7VS8x9yBk5qXpeTCj3NnattipnoaaofJ3Q9P
64K0xKTqG4zvcWmCOg9+iA4r61yWWXy4Irlyz7uEPrF+7XwmQpUC2tSOhdh2kUNQ
rN8hs7xl9DEid2etHcgYaKfClWnJ0SILrLpR/t+yoSRsJPVtgd3fCtO3rAfFLFbG
kpJ2HKkdZxXmasv1AgMBAAGjYzBhMA4GA1UdDwEB/wQEAwIBBjAPBgNVHRMBAf8E
BTADAQH/MB0GA1UdDgQWBBQyQvJv+nKoNnYURdxOsxJNiSUGgzAfBgNVHSMEGDAW
gBQyQvJv+nKoNnYURdxOsxJNiSUGgzANBgkqhkiG9w0BAQUFAAOCAQEANqwCITKy
MABUC5X4LtZXnMN9/EtcLvPaOk43E3idedFiMfUVBWjZC+B/JqOphYJm1GWWF2tq
O6DIkZzuP5PUR4/HzjHkQG7nAmFNOrRQPcrgO2umO7atd3vopjq0xG4FB5wJXgOp
y9UPk9gDa2vNdIXBQJaLzkKa3oMqhnvtMezQDdn18aVpxm3uTNyY0EOHIiycn3XL
cA6wbAETzqR3SOtzoI4mobgs+MJTGoFRM2HJ/mfX5tArWJ6vkIdIi60unPIFbY2Y
zORnlu8IQ9+JUh8GMeufH8iliRO25Pvek+SH4Qm25DcIc4T8S6i9HEqE9+bdfOnZ
ADl5FLKA2VKjGA==
-----END CERTIFICATE-----
