Certificate:
    Data:
        Version: 3 (0x2)
        Serial Number: 2 (0x2)
    Signature Algorithm: sha1WithRSAEncryption
        Issuer: DC=org, DC=simple, O=Simple Inc, OU=Simple Root CA, CN=Simple Root CA
        Validity
            Not Before: Dec  9 08:42:14 2017 GMT
            Not After : Dec  9 08:42:14 2027 GMT
        Subject: DC=org, DC=simple, O=Simple Inc, OU=Simple Signing CA, CN=Simple Signing CA
        Subject Public Key Info:
            Public Key Algorithm: rsaEncryption
                Public-Key: (2048 bit)
                Modulus:
                    00:ac:6a:c7:9f:1e:6a:c8:53:23:fe:b6:44:d3:77:
                    9f:eb:da:7e:44:0b:26:13:86:cb:e5:e0:fc:12:6e:
                    ad:88:f0:5a:e5:89:41:84:d1:3b:a1:40:29:9a:44:
                    7b:3a:b9:bd:af:bb:56:01:32:05:fa:45:a2:d5:cb:
                    f3:a9:73:c6:6a:d0:9e:09:dd:e0:45:85:75:55:00:
                    e4:65:43:b2:45:1c:a5:7f:57:55:8c:5f:29:8b:03:
                    c2:88:89:c1:57:d8:7d:be:42:63:a8:f4:14:ca:53:
                    0b:44:a4:a6:5e:3f:db:db:da:68:95:c0:cc:2c:fb:
                    41:d4:65:bb:58:52:2e:10:cc:5a:c4:17:41:3a:87:
                    3d:7d:fd:a8:c5:d9:2c:75:c0:e1:e5:49:c1:62:63:
                    31:92:b4:0a:6c:11:44:77:45:46:67:83:a6:9b:77:
                    0d:fd:f8:24:f4:0d:75:72:40:6e:6e:3c:bc:5f:c8:
                    a2:cc:cc:73:dc:fa:df:ed:b6:ed:8b:06:9f:bd:59:
                    24:c3:ea:fd:c6:40:b6:fd:a1:e5:7c:c9:f9:af:cc:
                    d2:62:19:fe:78:df:81:b8:b5:f8:5b:40:ba:05:7e:
                    25:ed:08:09:47:1d:f3:58:cb:0e:75:71:57:fa:c9:
                    43:8b:7d:01:1b:3a:88:0b:f4:f5:a2:d5:00:1f:2e:
                    6c:5b
                Exponent: 65537 (0x10001)
        X509v3 extensions:
            X509v3 Key Usage: critical
                Certificate Sign, CRL Sign
            X509v3 Basic Constraints: critical
                CA:TRUE, pathlen:0
            X509v3 Subject Key Identifier: 
                F8:C3:45:7E:CF:39:A3:E1:BD:54:94:DF:9B:92:59:17:BA:AD:DD:05
            X509v3 Authority Key Identifier: 
                keyid:32:42:F2:6F:FA:72:A8:36:76:14:45:DC:4E:B3:12:4D:89:25:06:83

    Signature Algorithm: sha1WithRSAEncryption
         b2:a4:f3:22:84:56:93:2a:1f:ea:7e:54:83:f1:59:16:21:07:
         bb:68:f1:8c:9f:e0:c9:b3:56:81:79:be:9d:3a:26:1c:9d:ec:
         6e:2c:2a:55:b5:71:8c:46:ae:41:a1:15:60:c1:a8:8a:6a:f7:
         7e:50:8f:65:d0:3a:f3:ce:95:c6:1c:a8:d6:4e:2f:b0:c9:38:
         88:75:00:0a:51:fc:8c:35:1d:c7:ed:e4:21:74:2b:53:2f:12:
         51:52:64:a9:af:42:f8:83:b0:bc:8c:1c:4c:3a:fd:24:62:2c:
         7e:31:13:e8:4e:1d:97:3b:38:cf:c0:65:9c:79:b3:e3:00:55:
         43:c2:59:32:5c:c3:40:4b:f7:5a:70:69:51:78:4e:2f:b6:bd:
         cb:db:a2:29:8b:2f:e0:b8:8f:76:ae:dd:29:2e:1f:cc:21:67:
         26:7c:8a:35:0d:77:6c:1a:60:1d:6a:62:f6:a4:d7:c5:09:17:
         b7:29:52:d8:52:1e:58:bf:91:15:e6:1a:20:f0:1e:11:f1:2e:
         fa:00:7e:9b:ae:8b:25:73:02:5d:b3:02:e1:00:17:aa:f9:5e:
         6a:d3:22:aa:0e:93:37:bf:ec:4e:8c:25:70:4c:73:23:42:1c:
         95:f9:b5:14:47:74:c6:dc:6e:de:7e:6c:c6:1f:8f:49:32:86:
         88:ab:6a:24
-----BEGIN CERTIFICATE-----
MIIDzzCCAregAwIBAgIBAjANBgkqhkiG9w0BAQUFADB0MRMwEQYKCZImiZPyLGQB
GRYDb3JnMRYwFAYKCZImiZPyLGQBGRYGc2ltcGxlMRMwEQYDVQQKDApTaW1wbGUg
SW5jMRcwFQYDVQQLDA5TaW1wbGUgUm9vdCBDQTEXMBUGA1UEAwwOU2ltcGxlIFJv
b3QgQ0EwHhcNMTcxMjA5MDg0MjE0WhcNMjcxMjA5MDg0MjE0WjB6MRMwEQYKCZIm
iZPyLGQBGRYDb3JnMRYwFAYKCZImiZPyLGQBGRYGc2ltcGxlMRMwEQYDVQQKDApT
aW1wbGUgSW5jMRowGAYDVQQLDBFTaW1wbGUgU2lnbmluZyBDQTEaMBgGA1UEAwwR
U2ltcGxlIFNpZ25pbmcgQ0EwggEiMA0GCSqGSIb3DQEBAQUAA4IBDwAwggEKAoIB
AQCsasefHmrIUyP+tkTTd5/r2n5ECyYThsvl4PwSbq2I8FrliUGE0TuhQCmaRHs6
ub2vu1YBMgX6RaLVy/Opc8Zq0J4J3eBFhXVVAORlQ7JFHKV/V1WMXymLA8KIicFX
2H2+QmOo9BTKUwtEpKZeP9vb2miVwMws+0HUZbtYUi4QzFrEF0E6hz19/ajF2Sx1
wOHlScFiYzGStApsEUR3RUZng6abdw39+CT0DXVyQG5uPLxfyKLMzHPc+t/ttu2L
Bp+9WSTD6v3GQLb9oeV8yfmvzNJiGf5434G4tfhbQLoFfiXtCAlHHfNYyw51cVf6
yUOLfQEbOogL9PWi1QAfLmxbAgMBAAGjZjBkMA4GA1UdDwEB/wQEAwIBBjASBgNV
HRMBAf8ECDAGAQH/AgEAMB0GA1UdDgQWBBT4w0V+zzmj4b1UlN+bklkXuq3dBTAf
BgNVHSMEGDAWgBQyQvJv+nKoNnYURdxOsxJNiSUGgzANBgkqhkiG9w0BAQUFAAOC
AQEAsqTzIoRWkyof6n5Ug/FZFiEHu2jxjJ/gybNWgXm+nTomHJ3sbiwqVbVxjEau
QaEVYMGoimr3flCPZdA6886Vxhyo1k4vsMk4iHUAClH8jDUdx+3kIXQrUy8SUVJk
qa9C+IOwvIwcTDr9JGIsfjET6E4dlzs4z8BlnHmz4wBVQ8JZMlzDQEv3WnBpUXhO
L7a9y9uiKYsv4LiPdq7dKS4fzCFnJnyKNQ13bBpgHWpi9qTXxQkXtylS2FIeWL+R
FeYaIPAeEfEu+gB+m66LJXMCXbMC4QAXqvleatMiqg6TN7/sTowlcExzI0Iclfm1
FEd0xtxu3n5sxh+PSTKGiKtqJA==
-----END CERTIFICATE-----
